; Function Attrs: mustprogress nofree norecurse nounwind willreturn memory(argmem: readwrite) uwtable
define hidden noundef ptr @_ZN8facebook6hermes17HermesRuntimeImpl11cloneStringEPKNS_3jsi7Runtime12PointerValueE(ptr nocapture nonnull readnone align 8 %this, ptr noundef returned %pv) unnamed_addr #12 align 2 {
entry:
  %tobool.not.i = icmp eq ptr %pv, null
  br i1 %tobool.not.i, label %_ZN8facebook6hermes17HermesRuntimeImpl5cloneEPKNS_3jsi7Runtime12PointerValueE.exit, label %if.end.i

if.end.i:                                         ; preds = %entry
  %refCount_.i.i = getelementptr inbounds i8, ptr %pv, i64 8
  %0 = atomicrmw add ptr %refCount_.i.i, i32 1 monotonic, align 4
  br label %_ZN8facebook6hermes17HermesRuntimeImpl5cloneEPKNS_3jsi7Runtime12PointerValueE.exit

_ZN8facebook6hermes17HermesRuntimeImpl5cloneEPKNS_3jsi7Runtime12PointerValueE.exit: ; preds = %entry, %if.end.i
  ret ptr %pv
}